; Function Attrs: nounwind uwtable
define internal range(i32 -1, 1) i32 @H5D__none_idx_copy_setup(ptr readnone captures(none) %0, ptr noundef readonly captures(none) %1) #0 {
  %3 = alloca i64, align 8
  %4 = load i8, ptr @H5D_init_g, align 1, !tbaa !3, !range !7, !noundef !8
  %5 = trunc nuw i8 %4 to i1
  %6 = load i8, ptr @H5_libterm_g, align 1, !range !7
  %7 = trunc nuw i8 %6 to i1
  %8 = xor i1 %7, true
  %9 = select i1 %5, i1 true, i1 %8
  br i1 %9, label %10, label %42, !prof !9

10:                                               ; preds = %2
  call void @llvm.lifetime.start.p0(i64 8, ptr nonnull %3) #9
  store i64 -1, ptr %3, align 8, !tbaa !23
  call void @H5AC_tag(i64 noundef 2, ptr noundef nonnull %3) #9
  %11 = load i8, ptr @H5D_init_g, align 1, !tbaa !3, !range !7, !noundef !8
  %12 = trunc nuw i8 %11 to i1
  %13 = load i8, ptr @H5_libterm_g, align 1, !range !7
  %14 = trunc nuw i8 %13 to i1
  %15 = xor i1 %14, true
  %16 = select i1 %12, i1 true, i1 %15
  br i1 %16, label %17, label %39, !prof !9

17:                                               ; preds = %10
  %18 = getelementptr inbounds nuw i8, ptr %1, i64 16
  %19 = load ptr, ptr %18, align 8, !tbaa !10
  %20 = getelementptr inbounds nuw i8, ptr %19, i64 160
  %21 = load i64, ptr %20, align 8, !tbaa !17
  %22 = getelementptr inbounds nuw i8, ptr %19, i64 148
  %23 = load i32, ptr %22, align 4, !tbaa !21
  %24 = zext i32 %23 to i64
  %25 = mul i64 %21, %24
  %26 = load ptr, ptr %1, align 8, !tbaa !22
  %27 = call i64 @H5MF_alloc(ptr noundef %26, i32 noundef 3, i64 noundef %25) #9
  %.not.i = icmp eq i64 %27, -1
  br i1 %.not.i, label %32, label %28

28:                                               ; preds = %17
  %29 = getelementptr inbounds nuw i8, ptr %1, i64 24
  %30 = load ptr, ptr %29, align 8, !tbaa !24
  %31 = getelementptr inbounds nuw i8, ptr %30, i64 8
  store i64 %27, ptr %31, align 8, !tbaa !25
  br label %39

32:                                               ; preds = %17
  %33 = load i64, ptr @H5E_DATASET_g, align 8, !tbaa !23
  %34 = load i64, ptr @H5E_CANTALLOC_g, align 8, !tbaa !23
  %35 = call i32 (ptr, ptr, i32, i64, i64, ptr, ...) @H5E_printf_stack(ptr noundef nonnull @.str, ptr noundef nonnull @__func__.H5D__none_idx_create, i32 noundef 141, i64 noundef %33, i64 noundef %34, ptr noundef nonnull @.str.1) #9
  %36 = load i64, ptr @H5E_DATASET_g, align 8, !tbaa !23
  %37 = load i64, ptr @H5E_CANTINIT_g, align 8, !tbaa !23
  %38 = call i32 (ptr, ptr, i32, i64, i64, ptr, ...) @H5E_printf_stack(ptr noundef nonnull @.str, ptr noundef nonnull @__func__.H5D__none_idx_copy_setup, i32 noundef 466, i64 noundef %36, i64 noundef %37, ptr noundef nonnull @.str.4) #9
  br label %41

39:                                               ; preds = %28, %10
  %40 = load i64, ptr %3, align 8, !tbaa !23
  call void @H5AC_tag(i64 noundef %40, ptr noundef null) #9
  br label %41

41:                                               ; preds = %39, %32
  %.1 = phi i32 [ -1, %32 ], [ 0, %39 ]
  call void @llvm.lifetime.end.p0(i64 8, ptr nonnull %3) #9
  br label %42

42:                                               ; preds = %41, %2
  %.05 = phi i32 [ %.1, %41 ], [ 0, %2 ]
  ret i32 %.05
}